; Function Attrs: mustprogress nofree norecurse nosync nounwind willreturn memory(argmem: write) uwtable
define void @_Z18setTrxFramePbcTypeP10t_trxframe7PbcType(ptr nocapture noundef writeonly %0, i32 noundef %1) local_unnamed_addr #15 {
  %3 = icmp eq i32 %1, 4
  %4 = getelementptr inbounds i8, ptr %0, i64 152
  %5 = zext i1 %3 to i8
  store i8 %5, ptr %4, align 8
  %6 = getelementptr inbounds i8, ptr %0, i64 156
  store i32 %1, ptr %6, align 4
  ret void
}